; Function Attrs: mustprogress nofree norecurse nosync nounwind willreturn memory(write, argmem: readwrite, inaccessiblemem: none) uwtable
define void @gvrender_set_penwidth(ptr noundef readonly captures(none) %0, double noundef %1) local_unnamed_addr #9 {
  %3 = getelementptr inbounds nuw i8, ptr %0, i64 120
  %4 = load ptr, ptr %3, align 8, !tbaa !47
  %.not = icmp eq ptr %4, null
  br i1 %.not, label %9, label %5

5:                                                ; preds = %2
  %6 = getelementptr inbounds nuw i8, ptr %0, i64 32
  %7 = load ptr, ptr %6, align 8, !tbaa !107
  %8 = getelementptr inbounds nuw i8, ptr %7, i64 176
  store double %1, ptr %8, align 8, !tbaa !122
  br label %9

9:                                                ; preds = %5, %2
  ret void
}